(lp0
ccopy_reg
_reconstructor
p1
(cglobalPlugins.urlShortener.isGd
UrlMetadata
p2
c__builtin__
object
p3
Ntp4
Rp5
(dp6
Vname
p7
Vexample.com
p8
sVoriginalUrl
p9
g8
sVshortenedUrl
p10
Vhttps://is.gd/iKpnPV
p11
sbag1
(g2
g3
Ntp12
Rp13
(dp14
g7
VNV Access
p15
sg9
Vhttps://nvaccess.org
p16
sg10
Vhttps://is.gd/PyDsQ1
p17
sba.