(lp0
ccopy_reg
_reconstructor
p1
(cglobalPlugins.urlShortener.isGd
UrlMetadata
p2
c__builtin__
object
p3
Ntp4
Rp5
(dp6
Vname
p7
Vexample.com
p8
sVoriginalUrl
p9
g8
sVshortenedUrl
p10
Vhttps://is.gd/iKpnPV
p11
sbag1
(g2
g3
Ntp12
Rp13
(dp14
g7
Vhttps://nvaccess.org
p15
sg9
g15
sg10
Vhttps://is.gd/PyDsQ1
p16
sbag1
(g2
g3
Ntp17
Rp18
(dp19
g7
Vdoce
p20
sg9
Vonce.es
p21
sg10
Vhttps://is.gd/RXq0wn
p22
sba.