(lp0
ccopy_reg
_reconstructor
p1
(cglobalPlugins.linkShortener.isGd
UrlMetadata
p2
c__builtin__
object
p3
Ntp4
Rp5
(dp6
Vname
p7
VGoogle.com
p8
sVoriginalUrl
p9
Vgoogle.com
p10
sVshortenedUrl
p11
Vhttps://is.gd/OwycZW
p12
sbag1
(g2
g3
Ntp13
Rp14
(dp15
g7
Vhttps://nvaccess.org
p16
sg9
g16
sg11
Vhttps://is.gd/PyDsQ1
p17
sba.